target datalayout = "e-m:e-p270:32:32-p271:32:32-p272:64:64-i64:64-i128:128-f80:128-n8:16:32:64-S128"
target triple = "x86_64-pc-linux-gnu"

%"class.icu_77::number::impl::DecimalQuantity" = type <{ %"class.icu_77::IFixedDecimal", i8, [3 x i8], i32, i32, i8, i8, [2 x i8], double, i32, i32, i32, i32, %union.anon, i8, i8, [6 x i8] }>
%"class.icu_77::IFixedDecimal" = type { ptr }
%union.anon = type { %struct.anon }
%struct.anon = type { ptr, i32 }

; Function Attrs: mustprogress nounwind uwtable
define noundef i32 @_ZNK6icu_776number4impl15DecimalQuantity24getUpperDisplayMagnitudeEv(ptr noundef nonnull align 8 dereferenceable(66) %0) #0 align 2 {
  %2 = alloca ptr, align 8
  %3 = alloca i32, align 4
  %4 = alloca i32, align 4
  store ptr %0, ptr %2, align 8, !tbaa !25
  %5 = load ptr, ptr %2, align 8
  call void @llvm.lifetime.start.p0(i64 4, ptr %3) #14
  %6 = getelementptr inbounds nuw %"class.icu_77::number::impl::DecimalQuantity", ptr %5, i32 0, i32 3
  %7 = load i32, ptr %6, align 4, !tbaa !43
  %8 = getelementptr inbounds nuw %"class.icu_77::number::impl::DecimalQuantity", ptr %5, i32 0, i32 4
  %9 = load i32, ptr %8, align 8, !tbaa !44
  %10 = add nsw i32 %7, %9
  store i32 %10, ptr %3, align 4, !tbaa !14
  call void @llvm.lifetime.start.p0(i64 4, ptr %4) #14
  %11 = getelementptr inbounds nuw %"class.icu_77::number::impl::DecimalQuantity", ptr %5, i32 0, i32 10
  %12 = load i32, ptr %11, align 4, !tbaa !34
  %13 = load i32, ptr %3, align 4, !tbaa !14
  %14 = icmp sgt i32 %12, %13
  br i1 %14, label %15, label %18

15:                                               ; preds = %1
  %16 = getelementptr inbounds nuw %"class.icu_77::number::impl::DecimalQuantity", ptr %5, i32 0, i32 10
  %17 = load i32, ptr %16, align 4, !tbaa !34
  br label %20

18:                                               ; preds = %1
  %19 = load i32, ptr %3, align 4, !tbaa !14
  br label %20

20:                                               ; preds = %18, %15
  %21 = phi i32 [ %17, %15 ], [ %19, %18 ]
  store i32 %21, ptr %4, align 4, !tbaa !14
  %22 = load i32, ptr %4, align 4, !tbaa !14
  %23 = sub nsw i32 %22, 1
  call void @llvm.lifetime.end.p0(i64 4, ptr %4) #14
  call void @llvm.lifetime.end.p0(i64 4, ptr %3) #14
  ret i32 %23
}