; Function Attrs: mustprogress nofree norecurse nosync nounwind willreturn memory(argmem: read) uwtable
define noundef range(i32 -2147483648, 2147483647) i32 @_ZNK6icu_776number4impl15DecimalQuantity24getUpperDisplayMagnitudeEv(ptr noundef nonnull readonly align 8 captures(none) dereferenceable(66) %0) local_unnamed_addr #16 align 2 {
  %2 = getelementptr inbounds nuw i8, ptr %0, i64 12
  %3 = load i32, ptr %2, align 4, !tbaa !27
  %4 = getelementptr inbounds nuw i8, ptr %0, i64 16
  %5 = load i32, ptr %4, align 8, !tbaa !28
  %6 = add nsw i32 %5, %3
  %7 = getelementptr inbounds nuw i8, ptr %0, i64 36
  %8 = load i32, ptr %7, align 4, !tbaa !33
  %. = tail call i32 @llvm.smax.i32(i32 %8, i32 %6)
  %9 = add nsw i32 %., -1
  ret i32 %9
}